target datalayout = "e-m:e-p270:32:32-p271:32:32-p272:64:64-i64:64-i128:128-f80:128-n8:16:32:64-S128"
target triple = "x86_64-pc-linux-gnu"

%struct.jv = type { i8, i8, i16, i32, %union.anon }
%union.anon = type { ptr }
%struct.err_data = type { [4096 x i8] }

@.str.25 = private unnamed_addr constant [10 x i8] c"jq: error\00", align 1
@.str.26 = private unnamed_addr constant [3 x i8] c"%s\00", align 1

; Function Attrs: nounwind uwtable
define internal void @test_err_cb(ptr noundef %0, i64 %1, ptr %2) #0 {
  %4 = alloca %struct.jv, align 8
  %5 = alloca ptr, align 8
  %6 = alloca ptr, align 8
  %7 = alloca %struct.jv, align 8
  %8 = getelementptr inbounds nuw { i64, ptr }, ptr %4, i32 0, i32 0
  store i64 %1, ptr %8, align 8
  %9 = getelementptr inbounds nuw { i64, ptr }, ptr %4, i32 0, i32 1
  store ptr %2, ptr %9, align 8
  store ptr %0, ptr %5, align 8, !tbaa !27
  call void @llvm.lifetime.start.p0(i64 8, ptr %6) #9
  %10 = load ptr, ptr %5, align 8, !tbaa !27
  store ptr %10, ptr %6, align 8, !tbaa !28
  %11 = getelementptr inbounds nuw { i64, ptr }, ptr %4, i32 0, i32 0
  %12 = load i64, ptr %11, align 8
  %13 = getelementptr inbounds nuw { i64, ptr }, ptr %4, i32 0, i32 1
  %14 = load ptr, ptr %13, align 8
  %15 = call i32 @jv_get_kind(i64 %12, ptr %14)
  %16 = icmp ne i32 %15, 5
  br i1 %16, label %17, label %27

17:                                               ; preds = %3
  call void @llvm.lifetime.start.p0(i64 16, ptr %7) #9
  %18 = getelementptr inbounds nuw { i64, ptr }, ptr %4, i32 0, i32 0
  %19 = load i64, ptr %18, align 8
  %20 = getelementptr inbounds nuw { i64, ptr }, ptr %4, i32 0, i32 1
  %21 = load ptr, ptr %20, align 8
  %22 = call { i64, ptr } @jv_dump_string(i64 %19, ptr %21, i32 noundef 16)
  %23 = getelementptr inbounds nuw { i64, ptr }, ptr %7, i32 0, i32 0
  %24 = extractvalue { i64, ptr } %22, 0
  store i64 %24, ptr %23, align 8
  %25 = getelementptr inbounds nuw { i64, ptr }, ptr %7, i32 0, i32 1
  %26 = extractvalue { i64, ptr } %22, 1
  store ptr %26, ptr %25, align 8
  call void @llvm.memcpy.p0.p0.i64(ptr align 8 %4, ptr align 8 %7, i64 16, i1 false), !tbaa.struct !19
  call void @llvm.lifetime.end.p0(i64 16, ptr %7) #9
  br label %27

27:                                               ; preds = %17, %3
  %28 = getelementptr inbounds nuw { i64, ptr }, ptr %4, i32 0, i32 0
  %29 = load i64, ptr %28, align 8
  %30 = getelementptr inbounds nuw { i64, ptr }, ptr %4, i32 0, i32 1
  %31 = load ptr, ptr %30, align 8
  %32 = call ptr @jv_string_value(i64 %29, ptr %31)
  %33 = call i32 @strncmp(ptr noundef %32, ptr noundef @.str.25, i64 noundef 9) #10
  %34 = icmp ne i32 %33, 0
  br i1 %34, label %45, label %35

35:                                               ; preds = %27
  %36 = load ptr, ptr %6, align 8, !tbaa !28
  %37 = getelementptr inbounds nuw %struct.err_data, ptr %36, i32 0, i32 0
  %38 = getelementptr inbounds [4096 x i8], ptr %37, i64 0, i64 0
  %39 = getelementptr inbounds nuw { i64, ptr }, ptr %4, i32 0, i32 0
  %40 = load i64, ptr %39, align 8
  %41 = getelementptr inbounds nuw { i64, ptr }, ptr %4, i32 0, i32 1
  %42 = load ptr, ptr %41, align 8
  %43 = call ptr @jv_string_value(i64 %40, ptr %42)
  %44 = call i32 (ptr, i64, ptr, ...) @snprintf(ptr noundef %38, i64 noundef 4096, ptr noundef @.str.26, ptr noundef %43) #9
  br label %45

45:                                               ; preds = %35, %27
  %46 = load ptr, ptr %6, align 8, !tbaa !28
  %47 = getelementptr inbounds nuw %struct.err_data, ptr %46, i32 0, i32 0
  %48 = getelementptr inbounds [4096 x i8], ptr %47, i64 0, i64 0
  %49 = call ptr @strchr(ptr noundef %48, i32 noundef 10) #10
  %50 = icmp ne ptr %49, null
  br i1 %50, label %51, label %56

51:                                               ; preds = %45
  %52 = load ptr, ptr %6, align 8, !tbaa !28
  %53 = getelementptr inbounds nuw %struct.err_data, ptr %52, i32 0, i32 0
  %54 = getelementptr inbounds [4096 x i8], ptr %53, i64 0, i64 0
  %55 = call ptr @strchr(ptr noundef %54, i32 noundef 10) #10
  store i8 0, ptr %55, align 1, !tbaa !20
  br label %56

56:                                               ; preds = %51, %45
  %57 = getelementptr inbounds nuw { i64, ptr }, ptr %4, i32 0, i32 0
  %58 = load i64, ptr %57, align 8
  %59 = getelementptr inbounds nuw { i64, ptr }, ptr %4, i32 0, i32 1
  %60 = load ptr, ptr %59, align 8
  call void @jv_free(i64 %58, ptr %60)
  call void @llvm.lifetime.end.p0(i64 8, ptr %6) #9
  ret void
}