; Function Attrs: nounwind uwtable
define internal void @test_err_cb(ptr noundef %0, i64 %1, ptr %2) #0 {
  %4 = tail call i32 @jv_get_kind(i64 %1, ptr %2) #13
  %.not = icmp eq i32 %4, 5
  br i1 %.not, label %9, label %5

5:                                                ; preds = %3
  %6 = tail call { i64, ptr } @jv_dump_string(i64 %1, ptr %2, i32 noundef 16) #13
  %7 = extractvalue { i64, ptr } %6, 0
  %8 = extractvalue { i64, ptr } %6, 1
  br label %9

9:                                                ; preds = %5, %3
  %.sroa.04.0 = phi i64 [ %7, %5 ], [ %1, %3 ]
  %.sroa.7.0 = phi ptr [ %8, %5 ], [ %2, %3 ]
  %10 = tail call ptr @jv_string_value(i64 %.sroa.04.0, ptr %.sroa.7.0) #13
  %11 = tail call i32 @strncmp(ptr noundef nonnull dereferenceable(1) %10, ptr noundef nonnull dereferenceable(10) @.str.25, i64 noundef 9) #14
  %.not13 = icmp eq i32 %11, 0
  br i1 %.not13, label %12, label %15

12:                                               ; preds = %9
  %13 = tail call ptr @jv_string_value(i64 %.sroa.04.0, ptr %.sroa.7.0) #13
  %14 = tail call i32 (ptr, i64, ptr, ...) @snprintf(ptr noundef nonnull dereferenceable(1) %0, i64 noundef 4096, ptr noundef nonnull @.str.26, ptr noundef %13) #13
  br label %15

15:                                               ; preds = %12, %9
  %16 = tail call ptr @strchr(ptr noundef nonnull dereferenceable(1) %0, i32 noundef 10) #14
  %.not14 = icmp eq ptr %16, null
  br i1 %.not14, label %18, label %17

17:                                               ; preds = %15
  store i8 0, ptr %16, align 1, !tbaa !11
  br label %18

18:                                               ; preds = %17, %15
  tail call void @jv_free(i64 %.sroa.04.0, ptr %.sroa.7.0) #13
  ret void
}